target datalayout = "e-m:e-p270:32:32-p271:32:32-p272:64:64-i64:64-i128:128-f80:128-n8:16:32:64-S128"
target triple = "x86_64-pc-linux-gnu"

%"class.std::__cxx11::basic_string" = type { %"struct.std::__cxx11::basic_string<char>::_Alloc_hider", i64, %union.anon }
%"struct.std::__cxx11::basic_string<char>::_Alloc_hider" = type { ptr }
%union.anon = type { i64, [8 x i8] }
%"class.osgeo::proj::File.base" = type <{ ptr, %"class.std::__cxx11::basic_string", %"class.std::__cxx11::basic_string", i8 }>
%"class.osgeo::proj::FileApiAdapter" = type { %"class.osgeo::proj::File.base", ptr, ptr }
%struct.pj_ctx = type <{ %"class.std::__cxx11::basic_string", i32, i32, i8, i8, [6 x i8], ptr, ptr, ptr, i32, i8, [3 x i8], i32, [4 x i8], %"class.std::__cxx11::basic_string", %"class.std::vector", ptr, ptr, ptr, %"class.std::map", i8, [7 x i8], %struct.projFileApiCallbackAndData, %"class.std::__cxx11::basic_string", %"class.std::__cxx11::basic_string", i8, [7 x i8], %"class.std::__cxx11::basic_string", %struct.projNetworkCallbacksAndData, %"class.std::__cxx11::basic_string", i8, [7 x i8], %struct.projGridChunkCache, i32, i32, i32, [4 x i8] }>
%"class.std::vector" = type { %"struct.std::_Vector_base" }
%"struct.std::_Vector_base" = type { %"struct.std::_Vector_base<std::__cxx11::basic_string<char>, std::allocator<std::__cxx11::basic_string<char>>>::_Vector_impl" }
%"struct.std::_Vector_base<std::__cxx11::basic_string<char>, std::allocator<std::__cxx11::basic_string<char>>>::_Vector_impl" = type { %"struct.std::_Vector_base<std::__cxx11::basic_string<char>, std::allocator<std::__cxx11::basic_string<char>>>::_Vector_impl_data" }
%"struct.std::_Vector_base<std::__cxx11::basic_string<char>, std::allocator<std::__cxx11::basic_string<char>>>::_Vector_impl_data" = type { ptr, ptr, ptr }
%"class.std::map" = type { %"class.std::_Rb_tree" }
%"class.std::_Rb_tree" = type { %"struct.std::_Rb_tree<std::__cxx11::basic_string<char>, std::pair<const std::__cxx11::basic_string<char>, std::__cxx11::basic_string<char>>, std::_Select1st<std::pair<const std::__cxx11::basic_string<char>, std::__cxx11::basic_string<char>>>, std::less<std::__cxx11::basic_string<char>>>::_Rb_tree_impl" }
%"struct.std::_Rb_tree<std::__cxx11::basic_string<char>, std::pair<const std::__cxx11::basic_string<char>, std::__cxx11::basic_string<char>>, std::_Select1st<std::pair<const std::__cxx11::basic_string<char>, std::__cxx11::basic_string<char>>>, std::less<std::__cxx11::basic_string<char>>>::_Rb_tree_impl" = type { [8 x i8], %"struct.std::_Rb_tree_header" }
%"struct.std::_Rb_tree_header" = type { %"struct.std::_Rb_tree_node_base", i64 }
%"struct.std::_Rb_tree_node_base" = type { i32, ptr, ptr, ptr }
%struct.projFileApiCallbackAndData = type { ptr, ptr, ptr, ptr, ptr, ptr, ptr, ptr, ptr, ptr, ptr }
%struct.projNetworkCallbacksAndData = type { i8, ptr, ptr, ptr, ptr, ptr }
%struct.projGridChunkCache = type <{ i8, [7 x i8], %"class.std::__cxx11::basic_string", i64, i32, [4 x i8] }>

; Function Attrs: mustprogress uwtable
define hidden noundef zeroext i1 @_ZN5osgeo4proj14FileApiAdapter4seekEyi(ptr noundef nonnull align 8 dereferenceable(96) %0, i64 noundef %1, i32 noundef %2) unnamed_addr #0 align 2 {
  %4 = alloca ptr, align 8
  %5 = alloca i64, align 8
  %6 = alloca i32, align 4
  store ptr %0, ptr %4, align 8, !tbaa !52
  store i64 %1, ptr %5, align 8, !tbaa !39
  store i32 %2, ptr %6, align 4, !tbaa !41
  %7 = load ptr, ptr %4, align 8
  %8 = getelementptr inbounds nuw %"class.osgeo::proj::FileApiAdapter", ptr %7, i32 0, i32 1
  %9 = load ptr, ptr %8, align 8, !tbaa !54
  %10 = getelementptr inbounds nuw %struct.pj_ctx, ptr %9, i32 0, i32 22
  %11 = getelementptr inbounds nuw %struct.projFileApiCallbackAndData, ptr %10, i32 0, i32 3
  %12 = load ptr, ptr %11, align 8, !tbaa !83
  %13 = getelementptr inbounds nuw %"class.osgeo::proj::FileApiAdapter", ptr %7, i32 0, i32 1
  %14 = load ptr, ptr %13, align 8, !tbaa !54
  %15 = getelementptr inbounds nuw %"class.osgeo::proj::FileApiAdapter", ptr %7, i32 0, i32 2
  %16 = load ptr, ptr %15, align 8, !tbaa !79
  %17 = load i64, ptr %5, align 8, !tbaa !39
  %18 = load i32, ptr %6, align 4, !tbaa !41
  %19 = getelementptr inbounds nuw %"class.osgeo::proj::FileApiAdapter", ptr %7, i32 0, i32 1
  %20 = load ptr, ptr %19, align 8, !tbaa !54
  %21 = getelementptr inbounds nuw %struct.pj_ctx, ptr %20, i32 0, i32 22
  %22 = getelementptr inbounds nuw %struct.projFileApiCallbackAndData, ptr %21, i32 0, i32 10
  %23 = load ptr, ptr %22, align 8, !tbaa !80
  %24 = call noundef i32 %12(ptr noundef %14, ptr noundef %16, i64 noundef %17, i32 noundef %18, ptr noundef %23)
  %25 = icmp ne i32 %24, 0
  ret i1 %25
}