; Function Attrs: mustprogress uwtable
define hidden noundef zeroext i1 @_ZN5osgeo4proj14FileApiAdapter4seekEyi(ptr noundef nonnull readonly align 8 captures(none) dereferenceable(96) %0, i64 noundef %1, i32 noundef %2) unnamed_addr #0 align 2 {
  %4 = getelementptr inbounds nuw i8, ptr %0, i64 80
  %5 = load ptr, ptr %4, align 8, !tbaa !51
  %6 = getelementptr inbounds nuw i8, ptr %5, i64 248
  %7 = load ptr, ptr %6, align 8, !tbaa !83
  %8 = getelementptr inbounds nuw i8, ptr %0, i64 88
  %9 = load ptr, ptr %8, align 8, !tbaa !79
  %10 = getelementptr inbounds nuw i8, ptr %5, i64 304
  %11 = load ptr, ptr %10, align 8, !tbaa !80
  %12 = tail call noundef i32 %7(ptr noundef %5, ptr noundef %9, i64 noundef %1, i32 noundef %2, ptr noundef %11)
  %13 = icmp ne i32 %12, 0
  ret i1 %13
}